; Function Attrs: mustprogress uwtable
define dso_local void @_ZN16cmListFileParserC2EP10cmListFile19cmListFileBacktraceP11cmMessenger(ptr noundef nonnull align 8 dereferenceable(124) %0, ptr noundef %1, ptr nocapture noundef %2, ptr noundef %3) unnamed_addr #3 align 2 personality ptr @__gxx_personality_v0 {
  store ptr %1, ptr %0, align 8
  %5 = getelementptr inbounds i8, ptr %0, i64 8
  %6 = load ptr, ptr %2, align 8
  store ptr %6, ptr %5, align 8
  %7 = getelementptr inbounds i8, ptr %0, i64 16
  store ptr null, ptr %7, align 8
  %8 = getelementptr inbounds i8, ptr %2, i64 8
  %9 = load ptr, ptr %8, align 8
  store ptr null, ptr %8, align 8
  store ptr %9, ptr %7, align 8
  store ptr null, ptr %2, align 8
  %10 = getelementptr inbounds i8, ptr %0, i64 24
  store ptr %3, ptr %10, align 8
  %11 = getelementptr inbounds i8, ptr %0, i64 32
  store ptr null, ptr %11, align 8
  %12 = invoke ptr @cmListFileLexer_New()
          to label %13 unwind label %17

13:                                               ; preds = %4
  %14 = getelementptr inbounds i8, ptr %0, i64 40
  store ptr %12, ptr %14, align 8
  %15 = getelementptr inbounds i8, ptr %0, i64 48
  tail call void @_ZNSt7__cxx1112basic_stringIcSt11char_traitsIcESaIcEEC1Ev(ptr noundef nonnull align 8 dereferenceable(32) %15) #17
  %16 = getelementptr inbounds i8, ptr %0, i64 96
  tail call void @llvm.memset.p0.i64(ptr noundef nonnull align 8 dereferenceable(24) %16, i8 0, i64 24, i1 false)
  ret void

17:                                               ; preds = %4
  %18 = landingpad { ptr, i32 }
          cleanup
  tail call void @_ZN19cmListFileBacktraceD2Ev(ptr noundef nonnull align 8 dereferenceable(16) %5) #17
  resume { ptr, i32 } %18
}